target datalayout = "e-m:e-p270:32:32-p271:32:32-p272:64:64-i64:64-i128:128-f80:128-n8:16:32:64-S128"
target triple = "x86_64-pc-linux-gnu"

%class.fixed_bit_vector = type { [1 x i32] }
%class.fixed_bit_vector_manager = type <{ %class.small_object_allocator, i32, i32, i32, i32, %class.fixed_bit_vector, [4 x i8] }>
%class.small_object_allocator = type { [32 x ptr], [32 x ptr], i64 }

; Function Attrs: mustprogress uwtable
define hidden noundef i32 @_ZNK24fixed_bit_vector_manager9last_wordERK16fixed_bit_vector(ptr noundef nonnull align 8 dereferenceable(540) %0, ptr noundef nonnull align 4 dereferenceable(4) %1) #4 align 2 {
  %3 = alloca i32, align 4
  %4 = alloca ptr, align 8
  %5 = alloca ptr, align 8
  %6 = alloca i32, align 4
  %7 = alloca i32, align 4
  store ptr %0, ptr %4, align 8, !tbaa !18
  store ptr %1, ptr %5, align 8, !tbaa !3
  %8 = load ptr, ptr %4, align 8
  call void @llvm.lifetime.start.p0(i64 4, ptr %6) #3
  %9 = call noundef i32 @_ZNK24fixed_bit_vector_manager9num_wordsEv(ptr noundef nonnull align 8 dereferenceable(540) %8)
  store i32 %9, ptr %6, align 4, !tbaa !8
  %10 = load i32, ptr %6, align 4, !tbaa !8
  %11 = icmp eq i32 %10, 0
  br i1 %11, label %12, label %13

12:                                               ; preds = %2
  store i32 0, ptr %3, align 4
  store i32 1, ptr %7, align 4
  br label %24

13:                                               ; preds = %2
  %14 = load ptr, ptr %5, align 8, !tbaa !3
  %15 = getelementptr inbounds nuw %class.fixed_bit_vector, ptr %14, i32 0, i32 0
  %16 = load i32, ptr %6, align 4, !tbaa !8
  %17 = sub i32 %16, 1
  %18 = zext i32 %17 to i64
  %19 = getelementptr inbounds nuw [1 x i32], ptr %15, i64 0, i64 %18
  %20 = load i32, ptr %19, align 4, !tbaa !8
  %21 = getelementptr inbounds nuw %class.fixed_bit_vector_manager, ptr %8, i32 0, i32 4
  %22 = load i32, ptr %21, align 4, !tbaa !27
  %23 = and i32 %20, %22
  store i32 %23, ptr %3, align 4
  store i32 1, ptr %7, align 4
  br label %24

24:                                               ; preds = %13, %12
  call void @llvm.lifetime.end.p0(i64 4, ptr %6) #3
  %25 = load i32, ptr %3, align 4
  ret i32 %25
}

; Function Attrs: mustprogress nounwind uwtable
define linkonce_odr hidden noundef i32 @_ZNK24fixed_bit_vector_manager9num_wordsEv(ptr noundef nonnull align 8 dereferenceable(540) %0) #6 comdat align 2 {
  %2 = alloca ptr, align 8
  store ptr %0, ptr %2, align 8, !tbaa !18
  %3 = load ptr, ptr %2, align 8
  %4 = getelementptr inbounds nuw %class.fixed_bit_vector_manager, ptr %3, i32 0, i32 3
  %5 = load i32, ptr %4, align 8, !tbaa !25
  ret i32 %5
}

; Function Attrs: mustprogress uwtable
define hidden noundef zeroext i1 @_ZNK24fixed_bit_vector_manager8containsERK16fixed_bit_vectorS2_(ptr noundef nonnull align 8 dereferenceable(540) %0, ptr noundef nonnull align 4 dereferenceable(4) %1, ptr noundef nonnull align 4 dereferenceable(4) %2) #4 align 2 {
  %4 = alloca i1, align 1
  %5 = alloca ptr, align 8
  %6 = alloca ptr, align 8
  %7 = alloca ptr, align 8
  %8 = alloca i32, align 4
  %9 = alloca i32, align 4
  %10 = alloca i32, align 4
  %11 = alloca i32, align 4
  store ptr %0, ptr %5, align 8, !tbaa !18
  store ptr %1, ptr %6, align 8, !tbaa !3
  store ptr %2, ptr %7, align 8, !tbaa !3
  %12 = load ptr, ptr %5, align 8
  call void @llvm.lifetime.start.p0(i64 4, ptr %8) #3
  %13 = call noundef i32 @_ZNK24fixed_bit_vector_manager9num_wordsEv(ptr noundef nonnull align 8 dereferenceable(540) %12)
  store i32 %13, ptr %8, align 4, !tbaa !8
  %14 = load i32, ptr %8, align 4, !tbaa !8
  %15 = icmp eq i32 %14, 0
  br i1 %15, label %16, label %17

16:                                               ; preds = %3
  store i1 true, ptr %4, align 1
  store i32 1, ptr %9, align 4
  br label %61

17:                                               ; preds = %3
  call void @llvm.lifetime.start.p0(i64 4, ptr %10) #3
  store i32 0, ptr %10, align 4, !tbaa !8
  br label %18

18:                                               ; preds = %47, %17
  %19 = load i32, ptr %10, align 4, !tbaa !8
  %20 = load i32, ptr %8, align 4, !tbaa !8
  %21 = sub i32 %20, 1
  %22 = icmp ult i32 %19, %21
  br i1 %22, label %24, label %23

23:                                               ; preds = %18
  store i32 2, ptr %9, align 4
  br label %50

24:                                               ; preds = %18
  %25 = load ptr, ptr %6, align 8, !tbaa !3
  %26 = getelementptr inbounds nuw %class.fixed_bit_vector, ptr %25, i32 0, i32 0
  %27 = load i32, ptr %10, align 4, !tbaa !8
  %28 = zext i32 %27 to i64
  %29 = getelementptr inbounds nuw [1 x i32], ptr %26, i64 0, i64 %28
  %30 = load i32, ptr %29, align 4, !tbaa !8
  %31 = load ptr, ptr %7, align 8, !tbaa !3
  %32 = getelementptr inbounds nuw %class.fixed_bit_vector, ptr %31, i32 0, i32 0
  %33 = load i32, ptr %10, align 4, !tbaa !8
  %34 = zext i32 %33 to i64
  %35 = getelementptr inbounds nuw [1 x i32], ptr %32, i64 0, i64 %34
  %36 = load i32, ptr %35, align 4, !tbaa !8
  %37 = and i32 %30, %36
  %38 = load ptr, ptr %7, align 8, !tbaa !3
  %39 = getelementptr inbounds nuw %class.fixed_bit_vector, ptr %38, i32 0, i32 0
  %40 = load i32, ptr %10, align 4, !tbaa !8
  %41 = zext i32 %40 to i64
  %42 = getelementptr inbounds nuw [1 x i32], ptr %39, i64 0, i64 %41
  %43 = load i32, ptr %42, align 4, !tbaa !8
  %44 = icmp ne i32 %37, %43
  br i1 %44, label %45, label %46

45:                                               ; preds = %24
  store i1 false, ptr %4, align 1
  store i32 1, ptr %9, align 4
  br label %50

46:                                               ; preds = %24
  br label %47

47:                                               ; preds = %46
  %48 = load i32, ptr %10, align 4, !tbaa !8
  %49 = add i32 %48, 1
  store i32 %49, ptr %10, align 4, !tbaa !8
  br label %18, !llvm.loop !32

50:                                               ; preds = %45, %23
  call void @llvm.lifetime.end.p0(i64 4, ptr %10) #3
  %51 = load i32, ptr %9, align 4
  switch i32 %51, label %61 [
    i32 2, label %52
  ]

52:                                               ; preds = %50
  call void @llvm.lifetime.start.p0(i64 4, ptr %11) #3
  %53 = load ptr, ptr %7, align 8, !tbaa !3
  %54 = call noundef i32 @_ZNK24fixed_bit_vector_manager9last_wordERK16fixed_bit_vector(ptr noundef nonnull align 8 dereferenceable(540) %12, ptr noundef nonnull align 4 dereferenceable(4) %53)
  store i32 %54, ptr %11, align 4, !tbaa !8
  %55 = load ptr, ptr %6, align 8, !tbaa !3
  %56 = call noundef i32 @_ZNK24fixed_bit_vector_manager9last_wordERK16fixed_bit_vector(ptr noundef nonnull align 8 dereferenceable(540) %12, ptr noundef nonnull align 4 dereferenceable(4) %55)
  %57 = load i32, ptr %11, align 4, !tbaa !8
  %58 = and i32 %56, %57
  %59 = load i32, ptr %11, align 4, !tbaa !8
  %60 = icmp eq i32 %58, %59
  store i1 %60, ptr %4, align 1
  store i32 1, ptr %9, align 4
  call void @llvm.lifetime.end.p0(i64 4, ptr %11) #3
  br label %61

61:                                               ; preds = %52, %50, %16
  call void @llvm.lifetime.end.p0(i64 4, ptr %8) #3
  %62 = load i1, ptr %4, align 1
  ret i1 %62
}