; Function Attrs: mustprogress nofree norecurse nosync nounwind willreturn memory(argmem: read) uwtable
define hidden noundef zeroext i1 @_ZNK24fixed_bit_vector_manager8containsERK16fixed_bit_vectorS2_(ptr noundef nonnull readonly align 8 captures(none) dereferenceable(540) %0, ptr noundef nonnull readonly align 4 captures(none) dereferenceable(4) %1, ptr noundef nonnull readonly align 4 captures(none) dereferenceable(4) %2) local_unnamed_addr #8 align 2 {
  %4 = getelementptr inbounds nuw i8, ptr %0, i64 528
  %5 = load i32, ptr %4, align 8, !tbaa !16
  %6 = icmp eq i32 %5, 0
  br i1 %6, label %.loopexit, label %.preheader

.preheader:                                       ; preds = %3
  %7 = add i32 %5, -1
  %.not1923.not = icmp eq i32 %7, 0
  br i1 %.not1923.not, label %_ZNK24fixed_bit_vector_manager9last_wordERK16fixed_bit_vector.exit21, label %.lr.ph.preheader

.lr.ph.preheader:                                 ; preds = %.preheader
  %wide.trip.count = zext i32 %7 to i64
  br label %.lr.ph

8:                                                ; preds = %.lr.ph
  %indvars.iv.next = add nuw nsw i64 %indvars.iv, 1
  %exitcond.not = icmp eq i64 %indvars.iv.next, %wide.trip.count
  br i1 %exitcond.not, label %_ZNK24fixed_bit_vector_manager9last_wordERK16fixed_bit_vector.exit21, label %.lr.ph, !llvm.loop !23

.lr.ph:                                           ; preds = %.lr.ph.preheader, %8
  %indvars.iv = phi i64 [ 0, %.lr.ph.preheader ], [ %indvars.iv.next, %8 ]
  %9 = getelementptr inbounds nuw [1 x i32], ptr %1, i64 0, i64 %indvars.iv
  %10 = load i32, ptr %9, align 4, !tbaa !3
  %11 = getelementptr inbounds nuw [1 x i32], ptr %2, i64 0, i64 %indvars.iv
  %12 = load i32, ptr %11, align 4, !tbaa !3
  %13 = and i32 %12, %10
  %.not = icmp eq i32 %13, %12
  br i1 %.not, label %8, label %.loopexit

_ZNK24fixed_bit_vector_manager9last_wordERK16fixed_bit_vector.exit21: ; preds = %8, %.preheader
  %.pre-phi = phi i64 [ 0, %.preheader ], [ %wide.trip.count, %8 ]
  %14 = getelementptr inbounds nuw [1 x i32], ptr %2, i64 0, i64 %.pre-phi
  %15 = load i32, ptr %14, align 4, !tbaa !3
  %16 = getelementptr inbounds nuw i8, ptr %0, i64 532
  %17 = load i32, ptr %16, align 4, !tbaa !18
  %18 = getelementptr inbounds nuw [1 x i32], ptr %1, i64 0, i64 %.pre-phi
  %19 = load i32, ptr %18, align 4, !tbaa !3
  %20 = xor i32 %19, -1
  %21 = and i32 %17, %15
  %22 = and i32 %21, %20
  %23 = icmp eq i32 %22, 0
  br label %.loopexit

.loopexit:                                        ; preds = %.lr.ph, %3, %_ZNK24fixed_bit_vector_manager9last_wordERK16fixed_bit_vector.exit21
  %.0 = phi i1 [ %23, %_ZNK24fixed_bit_vector_manager9last_wordERK16fixed_bit_vector.exit21 ], [ true, %3 ], [ false, %.lr.ph ]
  ret i1 %.0
}